target datalayout = "e-m:e-p270:32:32-p271:32:32-p272:64:64-i64:64-i128:128-f80:128-n8:16:32:64-S128"
target triple = "x86_64-pc-linux-gnu"

%struct.winsize = type { i16, i16, i16, i16 }
%struct.srun_job = type { %struct.slurm_step_id_msg, i32, i32, ptr, i32, i32, i32, i32, ptr, ptr, ptr, ptr, i32, i32, i32, i16, i16, i16, i16, i32, %union.pthread_mutex_t, %union.pthread_cond_t, i32, ptr, ptr, ptr, ptr, ptr, ptr, i32, i16, i16, i16, ptr, ptr, ptr, ptr, i32, ptr, i32, ptr }
%struct.slurm_step_id_msg = type { i64, i32, i32, i32 }
%union.pthread_mutex_t = type { %struct.__pthread_mutex_s }
%struct.__pthread_mutex_s = type { i32, i32, i32, i32, i32, i16, i16, %struct.__pthread_internal_list }
%struct.__pthread_internal_list = type { ptr, ptr }
%union.pthread_cond_t = type { %struct.__pthread_cond_s }
%struct.__pthread_cond_s = type { %union.__atomic_wide_counter, %union.__atomic_wide_counter, [2 x i32], [2 x i32], i32, i32, [2 x i32] }
%union.__atomic_wide_counter = type { i64 }

@.str = private unnamed_addr constant [22 x i8] c"ioctl(TIOCGWINSZ): %m\00", align 1
@.str.1 = private unnamed_addr constant [14 x i8] c"winsize %u:%u\00", align 1

; Function Attrs: nounwind uwtable
define dso_local i32 @set_winsize(i32 noundef %0, ptr noundef %1) #0 {
  %3 = alloca i32, align 4
  %4 = alloca i32, align 4
  %5 = alloca ptr, align 8
  %6 = alloca %struct.winsize, align 2
  %7 = alloca i32, align 4
  store i32 %0, ptr %4, align 4
  store ptr %1, ptr %5, align 8
  call void @llvm.lifetime.start.p0(i64 8, ptr %6) #8
  %8 = load i32, ptr %4, align 4
  %9 = call i32 (i32, i64, ...) @ioctl(i32 noundef %8, i64 noundef 21523, ptr noundef %6) #8
  %10 = icmp ne i32 %9, 0
  br i1 %10, label %11, label %13

11:                                               ; preds = %2
  %12 = call i32 (ptr, ...) @error(ptr noundef @.str)
  store i32 -1, ptr %3, align 4
  store i32 1, ptr %7, align 4
  br label %40

13:                                               ; preds = %2
  %14 = getelementptr inbounds nuw %struct.winsize, ptr %6, i32 0, i32 0
  %15 = load i16, ptr %14, align 2
  %16 = load ptr, ptr %5, align 8
  %17 = getelementptr inbounds nuw %struct.srun_job, ptr %16, i32 0, i32 32
  store i16 %15, ptr %17, align 8
  %18 = getelementptr inbounds nuw %struct.winsize, ptr %6, i32 0, i32 1
  %19 = load i16, ptr %18, align 2
  %20 = load ptr, ptr %5, align 8
  %21 = getelementptr inbounds nuw %struct.srun_job, ptr %20, i32 0, i32 31
  store i16 %19, ptr %21, align 2
  br label %22

22:                                               ; preds = %13
  br label %23

23:                                               ; preds = %22
  %24 = call i32 @get_log_level()
  %25 = icmp sge i32 %24, 6
  br i1 %25, label %26, label %35

26:                                               ; preds = %23
  %27 = load ptr, ptr %5, align 8
  %28 = getelementptr inbounds nuw %struct.srun_job, ptr %27, i32 0, i32 32
  %29 = load i16, ptr %28, align 8
  %30 = zext i16 %29 to i32
  %31 = load ptr, ptr %5, align 8
  %32 = getelementptr inbounds nuw %struct.srun_job, ptr %31, i32 0, i32 31
  %33 = load i16, ptr %32, align 2
  %34 = zext i16 %33 to i32
  call void (i32, ptr, ...) @log_var(i32 noundef 6, ptr noundef @.str.1, i32 noundef %30, i32 noundef %34)
  br label %35

35:                                               ; preds = %26, %23
  br label %36

36:                                               ; preds = %35
  br label %37

37:                                               ; preds = %36
  br label %38

38:                                               ; preds = %37
  br label %39

39:                                               ; preds = %38
  store i32 0, ptr %3, align 4
  store i32 1, ptr %7, align 4
  br label %40

40:                                               ; preds = %39, %11
  call void @llvm.lifetime.end.p0(i64 8, ptr %6) #8
  %41 = load i32, ptr %3, align 4
  ret i32 %41
}