; Function Attrs: nounwind uwtable
define dso_local range(i32 -1, 1) i32 @set_winsize(i32 noundef %0, ptr noundef captures(none) %1) local_unnamed_addr #0 {
  %3 = alloca %struct.winsize, align 2
  call void @llvm.lifetime.start.p0(i64 8, ptr nonnull %3) #7
  %4 = call i32 (i32, i64, ...) @ioctl(i32 noundef %0, i64 noundef 21523, ptr noundef nonnull %3) #7
  %.not = icmp eq i32 %4, 0
  br i1 %.not, label %7, label %5

5:                                                ; preds = %2
  %6 = call i32 (ptr, ...) @error(ptr noundef nonnull @.str) #7
  br label %20

7:                                                ; preds = %2
  %8 = load i16, ptr %3, align 2
  %9 = getelementptr inbounds nuw i8, ptr %1, i64 264
  store i16 %8, ptr %9, align 8
  %10 = getelementptr inbounds nuw i8, ptr %3, i64 2
  %11 = load i16, ptr %10, align 2
  %12 = getelementptr inbounds nuw i8, ptr %1, i64 262
  store i16 %11, ptr %12, align 2
  %13 = call i32 @get_log_level() #7
  %14 = icmp sgt i32 %13, 5
  br i1 %14, label %15, label %20

15:                                               ; preds = %7
  %16 = load i16, ptr %9, align 8
  %17 = zext i16 %16 to i32
  %18 = load i16, ptr %12, align 2
  %19 = zext i16 %18 to i32
  call void (i32, ptr, ...) @log_var(i32 noundef 6, ptr noundef nonnull @.str.1, i32 noundef %17, i32 noundef %19) #7
  br label %20

20:                                               ; preds = %7, %15, %5
  %.0 = phi i32 [ -1, %5 ], [ 0, %15 ], [ 0, %7 ]
  call void @llvm.lifetime.end.p0(i64 8, ptr nonnull %3) #7
  ret i32 %.0
}